target datalayout = "e-m:e-p270:32:32-p271:32:32-p272:64:64-i64:64-i128:128-f80:128-n8:16:32:64-S128"
target triple = "x86_64-pc-linux-gnu"

%struct.manifest_files_hash = type { i64, i32, i32, i32, ptr, ptr }
%struct.manifest_file = type { i32, ptr, i64, i32, i32, ptr }

; Function Attrs: inlinehint nounwind uwtable
define internal i32 @manifest_files_next(ptr noundef %0, i32 noundef %1, i32 noundef %2) #3 {
  %4 = alloca ptr, align 8
  %5 = alloca i32, align 4
  %6 = alloca i32, align 4
  store ptr %0, ptr %4, align 8
  store i32 %1, ptr %5, align 4
  store i32 %2, ptr %6, align 4
  %7 = load i32, ptr %5, align 4
  %8 = add i32 %7, 1
  %9 = load ptr, ptr %4, align 8
  %10 = getelementptr inbounds nuw %struct.manifest_files_hash, ptr %9, i32 0, i32 2
  %11 = load i32, ptr %10, align 4
  %12 = and i32 %8, %11
  store i32 %12, ptr %5, align 4
  %13 = load i32, ptr %5, align 4
  ret i32 %13
}

; Function Attrs: inlinehint nounwind uwtable
define internal i32 @manifest_files_initial_bucket(ptr noundef %0, i32 noundef %1) #3 {
  %3 = alloca ptr, align 8
  %4 = alloca i32, align 4
  store ptr %0, ptr %3, align 8
  store i32 %1, ptr %4, align 4
  %5 = load i32, ptr %4, align 4
  %6 = load ptr, ptr %3, align 8
  %7 = getelementptr inbounds nuw %struct.manifest_files_hash, ptr %6, i32 0, i32 2
  %8 = load i32, ptr %7, align 4
  %9 = and i32 %5, %8
  ret i32 %9
}

; Function Attrs: inlinehint nounwind uwtable
define internal ptr @manifest_files_lookup_hash_internal(ptr noundef %0, ptr noundef %1, i32 noundef %2) #3 {
  %4 = alloca ptr, align 8
  %5 = alloca ptr, align 8
  %6 = alloca ptr, align 8
  %7 = alloca i32, align 4
  %8 = alloca i32, align 4
  %9 = alloca i32, align 4
  %10 = alloca ptr, align 8
  %11 = alloca i32, align 4
  store ptr %0, ptr %5, align 8
  store ptr %1, ptr %6, align 8
  store i32 %2, ptr %7, align 4
  call void @llvm.lifetime.start.p0(i64 4, ptr %8) #14
  %12 = load ptr, ptr %5, align 8
  %13 = load i32, ptr %7, align 4
  %14 = call i32 @manifest_files_initial_bucket(ptr noundef %12, i32 noundef %13)
  store i32 %14, ptr %8, align 4
  call void @llvm.lifetime.start.p0(i64 4, ptr %9) #14
  %15 = load i32, ptr %8, align 4
  store i32 %15, ptr %9, align 4
  br label %16

16:                                               ; preds = %45, %3
  br label %17

17:                                               ; preds = %16
  call void @llvm.lifetime.start.p0(i64 8, ptr %10) #14
  %18 = load ptr, ptr %5, align 8
  %19 = getelementptr inbounds nuw %struct.manifest_files_hash, ptr %18, i32 0, i32 4
  %20 = load ptr, ptr %19, align 8
  %21 = load i32, ptr %9, align 4
  %22 = zext i32 %21 to i64
  %23 = getelementptr inbounds nuw %struct.manifest_file, ptr %20, i64 %22
  store ptr %23, ptr %10, align 8
  %24 = load ptr, ptr %10, align 8
  %25 = getelementptr inbounds nuw %struct.manifest_file, ptr %24, i32 0, i32 0
  %26 = load i32, ptr %25, align 8
  %27 = icmp eq i32 %26, 0
  br i1 %27, label %28, label %29

28:                                               ; preds = %17
  store ptr null, ptr %4, align 8
  store i32 1, ptr %11, align 4
  br label %43

29:                                               ; preds = %17
  %30 = load ptr, ptr %10, align 8
  %31 = getelementptr inbounds nuw %struct.manifest_file, ptr %30, i32 0, i32 1
  %32 = load ptr, ptr %31, align 8
  %33 = load ptr, ptr %6, align 8
  %34 = call i32 @strcmp(ptr noundef %32, ptr noundef %33) #16
  %35 = icmp eq i32 %34, 0
  br i1 %35, label %36, label %38

36:                                               ; preds = %29
  %37 = load ptr, ptr %10, align 8
  store ptr %37, ptr %4, align 8
  store i32 1, ptr %11, align 4
  br label %43

38:                                               ; preds = %29
  %39 = load ptr, ptr %5, align 8
  %40 = load i32, ptr %9, align 4
  %41 = load i32, ptr %8, align 4
  %42 = call i32 @manifest_files_next(ptr noundef %39, i32 noundef %40, i32 noundef %41)
  store i32 %42, ptr %9, align 4
  store i32 0, ptr %11, align 4
  br label %43

43:                                               ; preds = %38, %36, %28
  call void @llvm.lifetime.end.p0(i64 8, ptr %10) #14
  %44 = load i32, ptr %11, align 4
  switch i32 %44, label %46 [
    i32 0, label %45
  ]

45:                                               ; preds = %43
  br label %16

46:                                               ; preds = %43
  call void @llvm.lifetime.end.p0(i64 4, ptr %9) #14
  call void @llvm.lifetime.end.p0(i64 4, ptr %8) #14
  %47 = load ptr, ptr %4, align 8
  ret ptr %47
}

; Function Attrs: nounwind uwtable
define dso_local ptr @manifest_files_lookup(ptr noundef %0, ptr noundef %1) #0 {
  %3 = alloca ptr, align 8
  %4 = alloca ptr, align 8
  %5 = alloca i32, align 4
  store ptr %0, ptr %3, align 8
  store ptr %1, ptr %4, align 8
  call void @llvm.lifetime.start.p0(i64 4, ptr %5) #14
  %6 = load ptr, ptr %4, align 8
  %7 = call i32 @hash_string(ptr noundef %6)
  store i32 %7, ptr %5, align 4
  %8 = load ptr, ptr %3, align 8
  %9 = load ptr, ptr %4, align 8
  %10 = load i32, ptr %5, align 4
  %11 = call ptr @manifest_files_lookup_hash_internal(ptr noundef %8, ptr noundef %9, i32 noundef %10)
  call void @llvm.lifetime.end.p0(i64 4, ptr %5) #14
  ret ptr %11
}