; Function Attrs: nofree nounwind memory(read, inaccessiblemem: none) uwtable
define dso_local noundef ptr @manifest_files_lookup(ptr noundef readonly captures(none) %0, ptr noundef %1) local_unnamed_addr #8 {
  %3 = tail call fastcc i32 @hash_string(ptr noundef %1)
  %4 = getelementptr i8, ptr %0, i64 12
  %.val.i = load i32, ptr %4, align 4
  %5 = getelementptr inbounds nuw i8, ptr %0, i64 24
  %6 = load ptr, ptr %5, align 8
  %.01421.i = and i32 %.val.i, %3
  %7 = zext i32 %.01421.i to i64
  %8 = getelementptr inbounds nuw %struct.manifest_file, ptr %6, i64 %7
  %9 = load i32, ptr %8, align 8
  %10 = icmp eq i32 %9, 0
  br i1 %10, label %manifest_files_lookup_hash_internal.exit, label %.lr.ph.i

11:                                               ; preds = %.lr.ph.i
  %12 = add i32 %.01422.i, 1
  %.014.i = and i32 %12, %.val.i
  %13 = zext i32 %.014.i to i64
  %14 = getelementptr inbounds nuw %struct.manifest_file, ptr %6, i64 %13
  %15 = load i32, ptr %14, align 8
  %16 = icmp eq i32 %15, 0
  br i1 %16, label %manifest_files_lookup_hash_internal.exit, label %.lr.ph.i

.lr.ph.i:                                         ; preds = %2, %11
  %17 = phi ptr [ %14, %11 ], [ %8, %2 ]
  %.01422.i = phi i32 [ %.014.i, %11 ], [ %.01421.i, %2 ]
  %18 = getelementptr inbounds nuw i8, ptr %17, i64 8
  %19 = load ptr, ptr %18, align 8
  %20 = tail call i32 @strcmp(ptr noundef nonnull dereferenceable(1) %19, ptr noundef nonnull readonly dereferenceable(1) %1) #24
  %21 = icmp eq i32 %20, 0
  br i1 %21, label %manifest_files_lookup_hash_internal.exit, label %11

manifest_files_lookup_hash_internal.exit:         ; preds = %11, %.lr.ph.i, %2
  %.1.ph.i = phi ptr [ null, %2 ], [ %17, %.lr.ph.i ], [ null, %11 ]
  ret ptr %.1.ph.i
}